target datalayout = "e-m:e-p270:32:32-p271:32:32-p272:64:64-i64:64-i128:128-f80:128-n8:16:32:64-S128"
target triple = "x86_64-pc-linux-gnu"

%struct.Clu_Man_t_ = type { i32, i32, i32, i32, i32, i32, i32, i32, i32, i32, i32, i32, i32, i32, i32, ptr, ptr, ptr, ptr, i32, i32, i32, ptr, ptr, ptr, i32, i32, i32, i32, ptr, ptr, ptr, i32, i32 }
%struct.Cnf_Dat_t_ = type { ptr, i32, i32, i32, ptr, ptr, ptr, ptr, ptr, ptr }
%struct.Vec_Ptr_t_ = type { i32, i32, ptr }

; Function Attrs: inlinehint nounwind uwtable
define internal void @Abc_InfoSetBit(ptr noundef %0, i32 noundef %1) #2 {
  %3 = alloca ptr, align 8
  %4 = alloca i32, align 4
  store ptr %0, ptr %3, align 8, !tbaa !42
  store i32 %1, ptr %4, align 4, !tbaa !21
  %5 = load i32, ptr %4, align 4, !tbaa !21
  %6 = and i32 %5, 31
  %7 = shl i32 1, %6
  %8 = load ptr, ptr %3, align 8, !tbaa !42
  %9 = load i32, ptr %4, align 4, !tbaa !21
  %10 = ashr i32 %9, 5
  %11 = sext i32 %10 to i64
  %12 = getelementptr inbounds i32, ptr %8, i64 %11
  %13 = load i32, ptr %12, align 4, !tbaa !21
  %14 = or i32 %13, %7
  store i32 %14, ptr %12, align 4, !tbaa !21
  ret void
}

; Function Attrs: inlinehint nounwind uwtable
define internal ptr @Vec_PtrEntry(ptr noundef %0, i32 noundef %1) #2 {
  %3 = alloca ptr, align 8
  %4 = alloca i32, align 4
  store ptr %0, ptr %3, align 8, !tbaa !109
  store i32 %1, ptr %4, align 4, !tbaa !21
  %5 = load ptr, ptr %3, align 8, !tbaa !109
  %6 = getelementptr inbounds nuw %struct.Vec_Ptr_t_, ptr %5, i32 0, i32 2
  %7 = load ptr, ptr %6, align 8, !tbaa !112
  %8 = load i32, ptr %4, align 4, !tbaa !21
  %9 = sext i32 %8 to i64
  %10 = getelementptr inbounds ptr, ptr %7, i64 %9
  %11 = load ptr, ptr %10, align 8, !tbaa !113
  ret ptr %11
}

; Function Attrs: nounwind uwtable
define void @Fra_ClausSimInfoRecord(ptr noundef %0, ptr noundef %1) #0 {
  %3 = alloca ptr, align 8
  %4 = alloca ptr, align 8
  %5 = alloca i32, align 4
  store ptr %0, ptr %3, align 8, !tbaa !3
  store ptr %1, ptr %4, align 8, !tbaa !42
  call void @llvm.lifetime.start.p0(i64 4, ptr %5) #11
  %6 = load ptr, ptr %3, align 8, !tbaa !3
  %7 = getelementptr inbounds nuw %struct.Clu_Man_t_, ptr %6, i32 0, i32 32
  %8 = load i32, ptr %7, align 8, !tbaa !170
  %9 = load ptr, ptr %3, align 8, !tbaa !3
  %10 = getelementptr inbounds nuw %struct.Clu_Man_t_, ptr %9, i32 0, i32 33
  %11 = load i32, ptr %10, align 4, !tbaa !169
  %12 = icmp eq i32 %8, %11
  br i1 %12, label %13, label %15

13:                                               ; preds = %2
  %14 = load ptr, ptr %3, align 8, !tbaa !3
  call void @Fra_ClausSimInfoRealloc(ptr noundef %14)
  br label %15

15:                                               ; preds = %13, %2
  store i32 0, ptr %5, align 4, !tbaa !21
  br label %16

16:                                               ; preds = %41, %15
  %17 = load i32, ptr %5, align 4, !tbaa !21
  %18 = load ptr, ptr %3, align 8, !tbaa !3
  %19 = getelementptr inbounds nuw %struct.Clu_Man_t_, ptr %18, i32 0, i32 18
  %20 = load ptr, ptr %19, align 8, !tbaa !8
  %21 = getelementptr inbounds nuw %struct.Cnf_Dat_t_, ptr %20, i32 0, i32 1
  %22 = load i32, ptr %21, align 8, !tbaa !16
  %23 = icmp slt i32 %17, %22
  br i1 %23, label %24, label %44

24:                                               ; preds = %16
  %25 = load ptr, ptr %4, align 8, !tbaa !42
  %26 = load i32, ptr %5, align 4, !tbaa !21
  %27 = sext i32 %26 to i64
  %28 = getelementptr inbounds i32, ptr %25, i64 %27
  %29 = load i32, ptr %28, align 4, !tbaa !21
  %30 = icmp eq i32 %29, 1
  br i1 %30, label %31, label %40

31:                                               ; preds = %24
  %32 = load ptr, ptr %3, align 8, !tbaa !3
  %33 = getelementptr inbounds nuw %struct.Clu_Man_t_, ptr %32, i32 0, i32 31
  %34 = load ptr, ptr %33, align 8, !tbaa !168
  %35 = load i32, ptr %5, align 4, !tbaa !21
  %36 = call ptr @Vec_PtrEntry(ptr noundef %34, i32 noundef %35)
  %37 = load ptr, ptr %3, align 8, !tbaa !3
  %38 = getelementptr inbounds nuw %struct.Clu_Man_t_, ptr %37, i32 0, i32 32
  %39 = load i32, ptr %38, align 8, !tbaa !170
  call void @Abc_InfoSetBit(ptr noundef %36, i32 noundef %39)
  br label %40

40:                                               ; preds = %31, %24
  br label %41

41:                                               ; preds = %40
  %42 = load i32, ptr %5, align 4, !tbaa !21
  %43 = add nsw i32 %42, 1
  store i32 %43, ptr %5, align 4, !tbaa !21
  br label %16, !llvm.loop !173

44:                                               ; preds = %16
  %45 = load ptr, ptr %3, align 8, !tbaa !3
  %46 = getelementptr inbounds nuw %struct.Clu_Man_t_, ptr %45, i32 0, i32 32
  %47 = load i32, ptr %46, align 8, !tbaa !170
  %48 = add nsw i32 %47, 1
  store i32 %48, ptr %46, align 8, !tbaa !170
  call void @llvm.lifetime.end.p0(i64 4, ptr %5) #11
  ret void
}