; Function Attrs: nounwind uwtable
define void @Fra_ClausSimInfoRecord(ptr noundef captures(none) %0, ptr noundef readonly captures(none) %1) local_unnamed_addr #0 {
  %3 = getelementptr inbounds nuw i8, ptr %0, i64 176
  %4 = load i32, ptr %3, align 8, !tbaa !162
  %5 = getelementptr inbounds nuw i8, ptr %0, i64 180
  %6 = load i32, ptr %5, align 4, !tbaa !160
  %7 = icmp eq i32 %4, %6
  br i1 %7, label %8, label %9

8:                                                ; preds = %2
  tail call void @Fra_ClausSimInfoRealloc(ptr noundef nonnull %0)
  br label %9

9:                                                ; preds = %8, %2
  %10 = getelementptr inbounds nuw i8, ptr %0, i64 88
  %11 = load ptr, ptr %10, align 8, !tbaa !3
  %12 = getelementptr inbounds nuw i8, ptr %11, i64 8
  %13 = load i32, ptr %12, align 8, !tbaa !14
  %14 = icmp sgt i32 %13, 0
  br i1 %14, label %.lr.ph, label %._crit_edge

.lr.ph:                                           ; preds = %9
  %15 = getelementptr inbounds nuw i8, ptr %0, i64 168
  br label %16

16:                                               ; preds = %.lr.ph, %34
  %17 = phi i32 [ %13, %.lr.ph ], [ %35, %34 ]
  %indvars.iv = phi i64 [ 0, %.lr.ph ], [ %indvars.iv.next, %34 ]
  %18 = getelementptr inbounds nuw i32, ptr %1, i64 %indvars.iv
  %19 = load i32, ptr %18, align 4, !tbaa !38
  %20 = icmp eq i32 %19, 1
  br i1 %20, label %21, label %34

21:                                               ; preds = %16
  %22 = load ptr, ptr %15, align 8, !tbaa !159
  %23 = getelementptr i8, ptr %22, i64 8
  %.val = load ptr, ptr %23, align 8, !tbaa !31
  %24 = getelementptr inbounds nuw ptr, ptr %.val, i64 %indvars.iv
  %25 = load ptr, ptr %24, align 8, !tbaa !33
  %26 = load i32, ptr %3, align 8, !tbaa !162
  %27 = and i32 %26, 31
  %28 = shl nuw i32 1, %27
  %29 = ashr i32 %26, 5
  %30 = sext i32 %29 to i64
  %31 = getelementptr inbounds i32, ptr %25, i64 %30
  %32 = load i32, ptr %31, align 4, !tbaa !38
  %33 = or i32 %28, %32
  store i32 %33, ptr %31, align 4, !tbaa !38
  %.pre = load i32, ptr %12, align 8, !tbaa !14
  br label %34

34:                                               ; preds = %16, %21
  %35 = phi i32 [ %17, %16 ], [ %.pre, %21 ]
  %indvars.iv.next = add nuw nsw i64 %indvars.iv, 1
  %36 = sext i32 %35 to i64
  %37 = icmp slt i64 %indvars.iv.next, %36
  br i1 %37, label %16, label %._crit_edge, !llvm.loop !165

._crit_edge:                                      ; preds = %34, %9
  %38 = load i32, ptr %3, align 8, !tbaa !162
  %39 = add nsw i32 %38, 1
  store i32 %39, ptr %3, align 8, !tbaa !162
  ret void
}